target datalayout = "e-m:e-p270:32:32-p271:32:32-p272:64:64-i64:64-i128:128-f80:128-n8:16:32:64-S128"
target triple = "x86_64-pc-linux-gnu"

%struct._typeobject = type { %struct.PyVarObject, ptr, i64, i64, ptr, i64, ptr, ptr, ptr, ptr, ptr, ptr, ptr, ptr, ptr, ptr, ptr, ptr, ptr, i64, ptr, ptr, ptr, ptr, i64, ptr, ptr, ptr, ptr, ptr, ptr, ptr, ptr, ptr, i64, ptr, ptr, ptr, ptr, ptr, ptr, ptr, ptr, ptr, ptr, ptr, i32, ptr, ptr, i8, i16 }
%struct.PyVarObject = type { %struct._object, i64 }
%struct._object = type { %union.anon, ptr }
%union.anon = type { i64 }

@.str.2 = private unnamed_addr constant [15 x i8] c"set_vectorcall\00", align 1
@PyType_Type = external global %struct._typeobject, align 8
@.str.4 = private unnamed_addr constant [9 x i8] c"argument\00", align 1
@PyExc_TypeError = external global ptr, align 8
@.str.5 = private unnamed_addr constant [21 x i8] c"expected %s instance\00", align 1
@.str.6 = private unnamed_addr constant [33 x i8] c"type %s has no vectorcall offset\00", align 1
@_Py_NoneStruct = external global %struct._object, align 8

; Function Attrs: inlinehint nounwind uwtable
define internal ptr @_Py_TYPE(ptr noundef %0) #3 {
  %2 = alloca ptr, align 8
  store ptr %0, ptr %2, align 8, !tbaa !3
  %3 = load ptr, ptr %2, align 8, !tbaa !3
  %4 = getelementptr inbounds nuw %struct._object, ptr %3, i32 0, i32 1
  %5 = load ptr, ptr %4, align 8, !tbaa !27
  ret ptr %5
}

; Function Attrs: inlinehint nounwind uwtable
define internal i32 @Py_IS_TYPE(ptr noundef %0, ptr noundef %1) #3 {
  %3 = alloca ptr, align 8
  %4 = alloca ptr, align 8
  store ptr %0, ptr %3, align 8, !tbaa !3
  store ptr %1, ptr %4, align 8, !tbaa !23
  %5 = load ptr, ptr %3, align 8, !tbaa !3
  %6 = call ptr @_Py_TYPE(ptr noundef %5)
  %7 = load ptr, ptr %4, align 8, !tbaa !23
  %8 = icmp eq ptr %6, %7
  %9 = zext i1 %8 to i32
  ret i32 %9
}

; Function Attrs: nounwind uwtable
define internal ptr @_testcapi_VectorCallClass_set_vectorcall_impl(ptr noundef %0, ptr noundef %1) #0 {
  %3 = alloca ptr, align 8
  %4 = alloca ptr, align 8
  %5 = alloca ptr, align 8
  store ptr %0, ptr %4, align 8, !tbaa !3
  store ptr %1, ptr %5, align 8, !tbaa !23
  %6 = load ptr, ptr %4, align 8, !tbaa !3
  %7 = load ptr, ptr %5, align 8, !tbaa !23
  %8 = call i32 @PyObject_TypeCheck(ptr noundef %6, ptr noundef %7)
  %9 = icmp ne i32 %8, 0
  br i1 %9, label %15, label %10

10:                                               ; preds = %2
  %11 = load ptr, ptr @PyExc_TypeError, align 8, !tbaa !3
  %12 = load ptr, ptr %5, align 8, !tbaa !23
  %13 = call ptr @PyType_GetName(ptr noundef %12)
  %14 = call ptr (ptr, ptr, ...) @PyErr_Format(ptr noundef %11, ptr noundef @.str.5, ptr noundef %13)
  store ptr %14, ptr %3, align 8
  br label %31

15:                                               ; preds = %2
  %16 = load ptr, ptr %5, align 8, !tbaa !23
  %17 = getelementptr inbounds nuw %struct._typeobject, ptr %16, i32 0, i32 5
  %18 = load i64, ptr %17, align 8, !tbaa !25
  %19 = icmp ne i64 %18, 0
  br i1 %19, label %25, label %20

20:                                               ; preds = %15
  %21 = load ptr, ptr @PyExc_TypeError, align 8, !tbaa !3
  %22 = load ptr, ptr %5, align 8, !tbaa !23
  %23 = call ptr @PyType_GetName(ptr noundef %22)
  %24 = call ptr (ptr, ptr, ...) @PyErr_Format(ptr noundef %21, ptr noundef @.str.6, ptr noundef %23)
  store ptr %24, ptr %3, align 8
  br label %31

25:                                               ; preds = %15
  %26 = load ptr, ptr %4, align 8, !tbaa !3
  %27 = load ptr, ptr %5, align 8, !tbaa !23
  %28 = getelementptr inbounds nuw %struct._typeobject, ptr %27, i32 0, i32 5
  %29 = load i64, ptr %28, align 8, !tbaa !25
  %30 = getelementptr i8, ptr %26, i64 %29
  store ptr @VectorCallClass_vectorcall, ptr %30, align 8, !tbaa !26
  store ptr @_Py_NoneStruct, ptr %3, align 8
  br label %31

31:                                               ; preds = %25, %20, %10
  %32 = load ptr, ptr %3, align 8
  ret ptr %32
}

; Function Attrs: inlinehint nounwind uwtable
define internal i32 @PyObject_TypeCheck(ptr noundef %0, ptr noundef %1) #3 {
  %3 = alloca ptr, align 8
  %4 = alloca ptr, align 8
  store ptr %0, ptr %3, align 8, !tbaa !3
  store ptr %1, ptr %4, align 8, !tbaa !23
  %5 = load ptr, ptr %3, align 8, !tbaa !3
  %6 = load ptr, ptr %4, align 8, !tbaa !23
  %7 = call i32 @Py_IS_TYPE(ptr noundef %5, ptr noundef %6)
  %8 = icmp ne i32 %7, 0
  br i1 %8, label %15, label %9

9:                                                ; preds = %2
  %10 = load ptr, ptr %3, align 8, !tbaa !3
  %11 = call ptr @_Py_TYPE(ptr noundef %10)
  %12 = load ptr, ptr %4, align 8, !tbaa !23
  %13 = call i32 @PyType_IsSubtype(ptr noundef %11, ptr noundef %12)
  %14 = icmp ne i32 %13, 0
  br label %15

15:                                               ; preds = %9, %2
  %16 = phi i1 [ true, %2 ], [ %14, %9 ]
  %17 = zext i1 %16 to i32
  ret i32 %17
}

; Function Attrs: nounwind uwtable
define internal ptr @_testcapi_VectorCallClass_set_vectorcall(ptr noundef %0, ptr noundef %1) #0 {
  %3 = alloca ptr, align 8
  %4 = alloca ptr, align 8
  %5 = alloca ptr, align 8
  %6 = alloca ptr, align 8
  store ptr %0, ptr %3, align 8, !tbaa !3
  store ptr %1, ptr %4, align 8, !tbaa !3
  call void @llvm.lifetime.start.p0(i64 8, ptr %5) #7
  store ptr null, ptr %5, align 8, !tbaa !3
  call void @llvm.lifetime.start.p0(i64 8, ptr %6) #7
  %7 = load ptr, ptr %4, align 8, !tbaa !3
  %8 = call i32 @PyObject_TypeCheck(ptr noundef %7, ptr noundef @PyType_Type)
  %9 = icmp ne i32 %8, 0
  br i1 %9, label %13, label %10

10:                                               ; preds = %2
  %11 = load ptr, ptr getelementptr inbounds nuw (%struct._typeobject, ptr @PyType_Type, i32 0, i32 1), align 8, !tbaa !12
  %12 = load ptr, ptr %4, align 8, !tbaa !3
  call void @_PyArg_BadArgument(ptr noundef @.str.2, ptr noundef @.str.4, ptr noundef %11, ptr noundef %12)
  br label %18

13:                                               ; preds = %2
  %14 = load ptr, ptr %4, align 8, !tbaa !3
  store ptr %14, ptr %6, align 8, !tbaa !23
  %15 = load ptr, ptr %3, align 8, !tbaa !3
  %16 = load ptr, ptr %6, align 8, !tbaa !23
  %17 = call ptr @_testcapi_VectorCallClass_set_vectorcall_impl(ptr noundef %15, ptr noundef %16)
  store ptr %17, ptr %5, align 8, !tbaa !3
  br label %18

18:                                               ; preds = %13, %10
  %19 = load ptr, ptr %5, align 8, !tbaa !3
  call void @llvm.lifetime.end.p0(i64 8, ptr %6) #7
  call void @llvm.lifetime.end.p0(i64 8, ptr %5) #7
  ret ptr %19
}