; Function Attrs: nounwind uwtable
define internal ptr @_testcapi_VectorCallClass_set_vectorcall(ptr noundef captures(none) %0, ptr noundef %1) #0 {
  %3 = getelementptr i8, ptr %1, i64 8
  %.val = load ptr, ptr %3, align 8, !tbaa !3
  %.not.i = icmp eq ptr %.val, @PyType_Type
  br i1 %.not.i, label %PyObject_TypeCheck.exit.thread, label %PyObject_TypeCheck.exit

PyObject_TypeCheck.exit:                          ; preds = %2
  %4 = tail call i32 @PyType_IsSubtype(ptr noundef %.val, ptr noundef nonnull @PyType_Type) #5
  %.not7 = icmp eq i32 %4, 0
  br i1 %.not7, label %5, label %PyObject_TypeCheck.exit.thread

5:                                                ; preds = %PyObject_TypeCheck.exit
  %6 = load ptr, ptr getelementptr inbounds nuw (i8, ptr @PyType_Type, i64 24), align 8, !tbaa !9
  tail call void @_PyArg_BadArgument(ptr noundef nonnull @.str.2, ptr noundef nonnull @.str.4, ptr noundef %6, ptr noundef nonnull %1) #5
  br label %_testcapi_VectorCallClass_set_vectorcall_impl.exit

PyObject_TypeCheck.exit.thread:                   ; preds = %2, %PyObject_TypeCheck.exit
  %7 = getelementptr i8, ptr %0, i64 8
  %.val.i = load ptr, ptr %7, align 8, !tbaa !3
  %.not.i.i = icmp eq ptr %.val.i, %1
  br i1 %.not.i.i, label %PyObject_TypeCheck.exit.thread.i, label %PyObject_TypeCheck.exit.i

PyObject_TypeCheck.exit.i:                        ; preds = %PyObject_TypeCheck.exit.thread
  %8 = tail call i32 @PyType_IsSubtype(ptr noundef %.val.i, ptr noundef nonnull %1) #5
  %.not11.i = icmp eq i32 %8, 0
  br i1 %.not11.i, label %9, label %PyObject_TypeCheck.exit.thread.i

9:                                                ; preds = %PyObject_TypeCheck.exit.i
  %10 = load ptr, ptr @PyExc_TypeError, align 8, !tbaa !20
  %11 = tail call ptr @PyType_GetName(ptr noundef nonnull %1) #5
  %12 = tail call ptr (ptr, ptr, ...) @PyErr_Format(ptr noundef %10, ptr noundef nonnull @.str.5, ptr noundef %11) #5
  br label %_testcapi_VectorCallClass_set_vectorcall_impl.exit

PyObject_TypeCheck.exit.thread.i:                 ; preds = %PyObject_TypeCheck.exit.i, %PyObject_TypeCheck.exit.thread
  %13 = getelementptr inbounds nuw i8, ptr %1, i64 56
  %14 = load i64, ptr %13, align 8, !tbaa !21
  %.not9.i = icmp eq i64 %14, 0
  br i1 %.not9.i, label %15, label %19

15:                                               ; preds = %PyObject_TypeCheck.exit.thread.i
  %16 = load ptr, ptr @PyExc_TypeError, align 8, !tbaa !20
  %17 = tail call ptr @PyType_GetName(ptr noundef nonnull %1) #5
  %18 = tail call ptr (ptr, ptr, ...) @PyErr_Format(ptr noundef %16, ptr noundef nonnull @.str.6, ptr noundef %17) #5
  br label %_testcapi_VectorCallClass_set_vectorcall_impl.exit

19:                                               ; preds = %PyObject_TypeCheck.exit.thread.i
  %20 = getelementptr i8, ptr %0, i64 %14
  store ptr @VectorCallClass_vectorcall, ptr %20, align 8, !tbaa !22
  br label %_testcapi_VectorCallClass_set_vectorcall_impl.exit

_testcapi_VectorCallClass_set_vectorcall_impl.exit: ; preds = %19, %15, %9, %5
  %.0 = phi ptr [ null, %5 ], [ @_Py_NoneStruct, %19 ], [ %18, %15 ], [ %12, %9 ]
  ret ptr %.0
}